target datalayout = "e-m:e-p270:32:32-p271:32:32-p272:64:64-i64:64-i128:128-f80:128-n8:16:32:64-S128"
target triple = "x86_64-pc-linux-gnu"

%"class.icu_77::UMutex" = type { [40 x i8], %"struct.std::atomic", ptr }
%"struct.std::atomic" = type { %"struct.std::__atomic_base" }
%"struct.std::__atomic_base" = type { ptr }
%"union.icu_77::Transliterator::Token" = type { ptr }
%"class.icu_77::Mutex" = type { ptr }

@_ZL13registryMutex = internal global %"class.icu_77::UMutex" zeroinitializer, align 8
@_ZL8registry = internal global ptr null, align 8

; Function Attrs: mustprogress nounwind uwtable
define linkonce_odr void @_ZN6icu_775MutexD2Ev(ptr noundef nonnull align 8 dereferenceable(8) %0) unnamed_addr #0 comdat align 2 personality ptr @__gxx_personality_v0 {
  %2 = alloca ptr, align 8
  store ptr %0, ptr %2, align 8, !tbaa !133
  %3 = load ptr, ptr %2, align 8
  %4 = getelementptr inbounds nuw %"class.icu_77::Mutex", ptr %3, i32 0, i32 0
  %5 = load ptr, ptr %4, align 8, !tbaa !137
  invoke void @umtx_unlock_77(ptr noundef %5)
          to label %6 unwind label %7

6:                                                ; preds = %1
  ret void

7:                                                ; preds = %1
  %8 = landingpad { ptr, i32 }
          catch ptr null
  %9 = extractvalue { ptr, i32 } %8, 0
  call void @__clang_call_terminate(ptr %9) #17
  unreachable
}

; Function Attrs: mustprogress uwtable
define void @_ZN6icu_7714Transliterator16_registerFactoryERKNS_13UnicodeStringEPFPS0_S3_NS0_5TokenEES5_(ptr noundef nonnull align 8 dereferenceable(64) %0, ptr noundef %1, ptr %2) #1 align 2 {
  %4 = alloca %"union.icu_77::Transliterator::Token", align 8
  %5 = alloca ptr, align 8
  %6 = alloca ptr, align 8
  %7 = alloca i32, align 4
  %8 = alloca %"union.icu_77::Transliterator::Token", align 8
  %9 = getelementptr inbounds nuw %"union.icu_77::Transliterator::Token", ptr %4, i32 0, i32 0
  store ptr %2, ptr %9, align 8
  store ptr %0, ptr %5, align 8, !tbaa !25
  store ptr %1, ptr %6, align 8, !tbaa !22
  call void @llvm.lifetime.start.p0(i64 4, ptr %7) #15
  store i32 0, ptr %7, align 4, !tbaa !15
  %10 = load ptr, ptr @_ZL8registry, align 8, !tbaa !86
  %11 = load ptr, ptr %5, align 8, !tbaa !25
  %12 = load ptr, ptr %6, align 8, !tbaa !22
  call void @llvm.memcpy.p0.p0.i64(ptr align 8 %8, ptr align 8 %4, i64 8, i1 false), !tbaa.struct !132
  %13 = getelementptr inbounds nuw %"union.icu_77::Transliterator::Token", ptr %8, i32 0, i32 0
  %14 = load ptr, ptr %13, align 8
  call void @_ZN6icu_7722TransliteratorRegistry3putERKNS_13UnicodeStringEPFPNS_14TransliteratorES3_NS4_5TokenEES6_aR10UErrorCode(ptr noundef nonnull align 8 dereferenceable(312) %10, ptr noundef nonnull align 8 dereferenceable(64) %11, ptr noundef %12, ptr %14, i8 noundef signext 1, ptr noundef nonnull align 4 dereferenceable(4) %7)
  call void @llvm.lifetime.end.p0(i64 4, ptr %7) #15
  ret void
}

; Function Attrs: mustprogress uwtable
define linkonce_odr void @_ZN6icu_775MutexC2EPNS_6UMutexE(ptr noundef nonnull align 8 dereferenceable(8) %0, ptr noundef %1) unnamed_addr #1 comdat align 2 {
  %3 = alloca ptr, align 8
  %4 = alloca ptr, align 8
  store ptr %0, ptr %3, align 8, !tbaa !133
  store ptr %1, ptr %4, align 8, !tbaa !135
  %5 = load ptr, ptr %3, align 8
  %6 = getelementptr inbounds nuw %"class.icu_77::Mutex", ptr %5, i32 0, i32 0
  %7 = load ptr, ptr %4, align 8, !tbaa !135
  store ptr %7, ptr %6, align 8, !tbaa !137
  %8 = getelementptr inbounds nuw %"class.icu_77::Mutex", ptr %5, i32 0, i32 0
  %9 = load ptr, ptr %8, align 8, !tbaa !137
  call void @umtx_lock_77(ptr noundef %9)
  ret void
}

; Function Attrs: mustprogress uwtable
define void @_ZN6icu_7714Transliterator15registerFactoryERKNS_13UnicodeStringEPFPS0_S3_NS0_5TokenEES5_(ptr noundef nonnull align 8 dereferenceable(64) %0, ptr noundef %1, ptr %2) #1 align 2 personality ptr @__gxx_personality_v0 {
  %4 = alloca %"union.icu_77::Transliterator::Token", align 8
  %5 = alloca ptr, align 8
  %6 = alloca ptr, align 8
  %7 = alloca %"class.icu_77::Mutex", align 8
  %8 = alloca i32, align 4
  %9 = alloca ptr, align 8
  %10 = alloca i32, align 4
  %11 = alloca %"union.icu_77::Transliterator::Token", align 8
  %12 = getelementptr inbounds nuw %"union.icu_77::Transliterator::Token", ptr %4, i32 0, i32 0
  store ptr %2, ptr %12, align 8
  store ptr %0, ptr %5, align 8, !tbaa !25
  store ptr %1, ptr %6, align 8, !tbaa !22
  call void @llvm.lifetime.start.p0(i64 8, ptr %7) #15
  call void @_ZN6icu_775MutexC2EPNS_6UMutexE(ptr noundef nonnull align 8 dereferenceable(8) %7, ptr noundef @_ZL13registryMutex)
  call void @llvm.lifetime.start.p0(i64 4, ptr %8) #15
  store i32 0, ptr %8, align 4, !tbaa !15
  %13 = load ptr, ptr @_ZL8registry, align 8, !tbaa !86
  %14 = icmp ne ptr %13, null
  br i1 %14, label %19, label %15

15:                                               ; preds = %3
  %16 = invoke noundef signext i8 @_ZN6icu_7714Transliterator18initializeRegistryER10UErrorCode(ptr noundef nonnull align 4 dereferenceable(4) %8)
          to label %17 unwind label %25

17:                                               ; preds = %15
  %18 = icmp ne i8 %16, 0
  br i1 %18, label %19, label %29

19:                                               ; preds = %17, %3
  %20 = load ptr, ptr %5, align 8, !tbaa !25
  %21 = load ptr, ptr %6, align 8, !tbaa !22
  call void @llvm.memcpy.p0.p0.i64(ptr align 8 %11, ptr align 8 %4, i64 8, i1 false), !tbaa.struct !132
  %22 = getelementptr inbounds nuw %"union.icu_77::Transliterator::Token", ptr %11, i32 0, i32 0
  %23 = load ptr, ptr %22, align 8
  invoke void @_ZN6icu_7714Transliterator16_registerFactoryERKNS_13UnicodeStringEPFPS0_S3_NS0_5TokenEES5_(ptr noundef nonnull align 8 dereferenceable(64) %20, ptr noundef %21, ptr %23)
          to label %24 unwind label %25

24:                                               ; preds = %19
  br label %29

25:                                               ; preds = %19, %15
  %26 = landingpad { ptr, i32 }
          cleanup
  %27 = extractvalue { ptr, i32 } %26, 0
  store ptr %27, ptr %9, align 8
  %28 = extractvalue { ptr, i32 } %26, 1
  store i32 %28, ptr %10, align 4
  call void @llvm.lifetime.end.p0(i64 4, ptr %8) #15
  call void @_ZN6icu_775MutexD2Ev(ptr noundef nonnull align 8 dereferenceable(8) %7) #15
  call void @llvm.lifetime.end.p0(i64 8, ptr %7) #15
  br label %30

29:                                               ; preds = %24, %17
  call void @llvm.lifetime.end.p0(i64 4, ptr %8) #15
  call void @_ZN6icu_775MutexD2Ev(ptr noundef nonnull align 8 dereferenceable(8) %7) #15
  call void @llvm.lifetime.end.p0(i64 8, ptr %7) #15
  ret void

30:                                               ; preds = %25
  %31 = load ptr, ptr %9, align 8
  %32 = load i32, ptr %10, align 4
  %33 = insertvalue { ptr, i32 } poison, ptr %31, 0
  %34 = insertvalue { ptr, i32 } %33, i32 %32, 1
  resume { ptr, i32 } %34
}