; Function Attrs: mustprogress uwtable
define void @_ZN6icu_7714Transliterator15registerFactoryERKNS_13UnicodeStringEPFPS0_S3_NS0_5TokenEES5_(ptr noundef nonnull align 8 dereferenceable(64) %0, ptr noundef %1, ptr %2) local_unnamed_addr #1 align 2 personality ptr @__gxx_personality_v0 {
  %4 = alloca i32, align 4
  %5 = alloca i32, align 4
  tail call void @umtx_lock_77(ptr noundef nonnull @_ZL13registryMutex)
  call void @llvm.lifetime.start.p0(i64 4, ptr nonnull %5) #21
  store i32 0, ptr %5, align 4, !tbaa !13
  %6 = load ptr, ptr @_ZL8registry, align 8, !tbaa !49
  %.not = icmp eq ptr %6, null
  br i1 %.not, label %7, label %10

7:                                                ; preds = %3
  %8 = invoke noundef signext i8 @_ZN6icu_7714Transliterator18initializeRegistryER10UErrorCode(ptr noundef nonnull align 4 dereferenceable(4) %5)
          to label %9 unwind label %12

9:                                                ; preds = %7
  %.not4 = icmp eq i8 %8, 0
  br i1 %.not4, label %17, label %._crit_edge

._crit_edge:                                      ; preds = %9
  %.pre = load ptr, ptr @_ZL8registry, align 8, !tbaa !49
  br label %10

10:                                               ; preds = %._crit_edge, %3
  %11 = phi ptr [ %.pre, %._crit_edge ], [ %6, %3 ]
  call void @llvm.lifetime.start.p0(i64 4, ptr nonnull %4) #21
  store i32 0, ptr %4, align 4, !tbaa !13
  invoke void @_ZN6icu_7722TransliteratorRegistry3putERKNS_13UnicodeStringEPFPNS_14TransliteratorES3_NS4_5TokenEES6_aR10UErrorCode(ptr noundef nonnull align 8 dereferenceable(312) %11, ptr noundef nonnull align 8 dereferenceable(64) %0, ptr noundef %1, ptr %2, i8 noundef signext 1, ptr noundef nonnull align 4 dereferenceable(4) %4)
          to label %_ZN6icu_7714Transliterator16_registerFactoryERKNS_13UnicodeStringEPFPS0_S3_NS0_5TokenEES5_.exit unwind label %12

_ZN6icu_7714Transliterator16_registerFactoryERKNS_13UnicodeStringEPFPS0_S3_NS0_5TokenEES5_.exit: ; preds = %10
  call void @llvm.lifetime.end.p0(i64 4, ptr nonnull %4) #21
  br label %17

12:                                               ; preds = %10, %7
  %13 = landingpad { ptr, i32 }
          cleanup
  call void @llvm.lifetime.end.p0(i64 4, ptr nonnull %5) #21
  invoke void @umtx_unlock_77(ptr noundef nonnull @_ZL13registryMutex)
          to label %_ZN6icu_775MutexD2Ev.exit unwind label %14

14:                                               ; preds = %12
  %15 = landingpad { ptr, i32 }
          catch ptr null
  %16 = extractvalue { ptr, i32 } %15, 0
  call void @__clang_call_terminate(ptr %16) #23
  unreachable

_ZN6icu_775MutexD2Ev.exit:                        ; preds = %12
  resume { ptr, i32 } %13

17:                                               ; preds = %_ZN6icu_7714Transliterator16_registerFactoryERKNS_13UnicodeStringEPFPS0_S3_NS0_5TokenEES5_.exit, %9
  call void @llvm.lifetime.end.p0(i64 4, ptr nonnull %5) #21
  invoke void @umtx_unlock_77(ptr noundef nonnull @_ZL13registryMutex)
          to label %_ZN6icu_775MutexD2Ev.exit5 unwind label %18

18:                                               ; preds = %17
  %19 = landingpad { ptr, i32 }
          catch ptr null
  %20 = extractvalue { ptr, i32 } %19, 0
  call void @__clang_call_terminate(ptr %20) #23
  unreachable

_ZN6icu_775MutexD2Ev.exit5:                       ; preds = %17
  ret void
}